target datalayout = "e-m:e-p270:32:32-p271:32:32-p272:64:64-i64:64-i128:128-f80:128-n8:16:32:64-S128"
target triple = "x86_64-pc-linux-gnu"

%struct.IDAMemRec = type { double, ptr, ptr, i32, double, double, ptr, i32, ptr, ptr, i32, ptr, ptr, i32, i32, double, double, ptr, i32, i32, i32, ptr, ptr, i32, ptr, ptr, ptr, i32, double, i32, i32, double, ptr, ptr, i32, ptr, ptr, i32, i32, i32, double, ptr, ptr, [6 x ptr], [6 x double], [6 x double], [6 x double], [6 x double], [6 x double], ptr, ptr, ptr, ptr, ptr, ptr, ptr, ptr, ptr, ptr, ptr, ptr, ptr, ptr, ptr, [6 x ptr], ptr, ptr, ptr, ptr, [6 x ptr], ptr, ptr, ptr, ptr, ptr, ptr, ptr, ptr, ptr, ptr, ptr, ptr, ptr, ptr, [6 x ptr], ptr, ptr, ptr, ptr, ptr, double, ptr, ptr, i32, i32, i32, i32, i32, i32, i32, double, double, double, i32, double, i32, i32, i32, i32, double, double, double, double, double, double, double, double, double, double, double, double, double, double, i32, i32, i32, i32, i32, i64, double, i32, i64, i64, i64, i64, i64, i64, i64, i64, i64, i64, i64, i64, i64, i64, i64, i64, i64, i64, i64, i64, i64, i64, i64, i64, ptr, ptr, ptr, i32, i32, i32, i32, i32, i32, i32, i32, i32, i32, i32, i32, i32, ptr, ptr, ptr, ptr, ptr, ptr, i32, i32, i32, i32, i32, i32, double, double, double, ptr, i32, ptr, ptr, double, double, double, ptr, ptr, ptr, double, double, i32, i32, i64, ptr, i32, i32, ptr, i32 }
%struct.IDAadjMemRec = type { double, double, i32, i32, double, ptr, i32, ptr, i32, ptr, ptr, i32, i64, ptr, i64, i32, ptr, ptr, ptr, ptr, i32, i32, i32, i32, i32, [6 x ptr], [6 x ptr], [6 x double], ptr, ptr, ptr, ptr, i64 }
%struct.IDABMemRec = type { i32, double, ptr, i32, i32, ptr, ptr, ptr, ptr, ptr, ptr, ptr, ptr, ptr, double, ptr, ptr, ptr }
%struct.IDABBDPrecDataRecB = type { ptr, ptr }

@.str = private unnamed_addr constant [10 x i8] c"IDABBDPRE\00", align 1
@.str.16 = private unnamed_addr constant [11 x i8] c"IDAAglocal\00", align 1
@.str.17 = private unnamed_addr constant [25 x i8] c"Bad t for interpolation.\00", align 1

; Function Attrs: nounwind uwtable
define internal i32 @IDAAglocal(i64 noundef %0, double noundef %1, ptr noundef %2, ptr noundef %3, ptr noundef %4, ptr noundef %5) #0 {
  %7 = alloca i32, align 4
  %8 = alloca i64, align 8
  %9 = alloca double, align 8
  %10 = alloca ptr, align 8
  %11 = alloca ptr, align 8
  %12 = alloca ptr, align 8
  %13 = alloca ptr, align 8
  %14 = alloca ptr, align 8
  %15 = alloca ptr, align 8
  %16 = alloca ptr, align 8
  %17 = alloca ptr, align 8
  %18 = alloca i32, align 4
  %19 = alloca i32, align 4
  store i64 %0, ptr %8, align 8, !tbaa !7
  store double %1, ptr %9, align 8, !tbaa !9
  store ptr %2, ptr %10, align 8, !tbaa !44
  store ptr %3, ptr %11, align 8, !tbaa !44
  store ptr %4, ptr %12, align 8, !tbaa !44
  store ptr %5, ptr %13, align 8, !tbaa !3
  call void @llvm.lifetime.start.p0(i64 8, ptr %14) #6
  call void @llvm.lifetime.start.p0(i64 8, ptr %15) #6
  call void @llvm.lifetime.start.p0(i64 8, ptr %16) #6
  call void @llvm.lifetime.start.p0(i64 8, ptr %17) #6
  call void @llvm.lifetime.start.p0(i64 4, ptr %18) #6
  %20 = load ptr, ptr %13, align 8, !tbaa !3
  store ptr %20, ptr %14, align 8, !tbaa !11
  %21 = load ptr, ptr %14, align 8, !tbaa !11
  %22 = getelementptr inbounds nuw %struct.IDAMemRec, ptr %21, i32 0, i32 204
  %23 = load ptr, ptr %22, align 8, !tbaa !59
  store ptr %23, ptr %15, align 8, !tbaa !60
  %24 = load ptr, ptr %15, align 8, !tbaa !60
  %25 = getelementptr inbounds nuw %struct.IDAadjMemRec, ptr %24, i32 0, i32 7
  %26 = load ptr, ptr %25, align 8, !tbaa !81
  store ptr %26, ptr %16, align 8, !tbaa !67
  %27 = load ptr, ptr %16, align 8, !tbaa !67
  %28 = getelementptr inbounds nuw %struct.IDABMemRec, ptr %27, i32 0, i32 12
  %29 = load ptr, ptr %28, align 8, !tbaa !79
  store ptr %29, ptr %17, align 8, !tbaa !74
  %30 = load ptr, ptr %15, align 8, !tbaa !60
  %31 = getelementptr inbounds nuw %struct.IDAadjMemRec, ptr %30, i32 0, i32 24
  %32 = load i32, ptr %31, align 8, !tbaa !82
  %33 = icmp eq i32 %32, 0
  br i1 %33, label %34, label %52

34:                                               ; preds = %6
  %35 = load ptr, ptr %15, align 8, !tbaa !60
  %36 = getelementptr inbounds nuw %struct.IDAadjMemRec, ptr %35, i32 0, i32 17
  %37 = load ptr, ptr %36, align 8, !tbaa !83
  %38 = load ptr, ptr %14, align 8, !tbaa !11
  %39 = load double, ptr %9, align 8, !tbaa !9
  %40 = load ptr, ptr %15, align 8, !tbaa !60
  %41 = getelementptr inbounds nuw %struct.IDAadjMemRec, ptr %40, i32 0, i32 28
  %42 = load ptr, ptr %41, align 8, !tbaa !84
  %43 = load ptr, ptr %15, align 8, !tbaa !60
  %44 = getelementptr inbounds nuw %struct.IDAadjMemRec, ptr %43, i32 0, i32 29
  %45 = load ptr, ptr %44, align 8, !tbaa !85
  %46 = call i32 %37(ptr noundef %38, double noundef %39, ptr noundef %42, ptr noundef %45, ptr noundef null, ptr noundef null)
  store i32 %46, ptr %18, align 4, !tbaa !55
  %47 = load i32, ptr %18, align 4, !tbaa !55
  %48 = icmp ne i32 %47, 0
  br i1 %48, label %49, label %51

49:                                               ; preds = %34
  %50 = load ptr, ptr %14, align 8, !tbaa !11
  call void (ptr, i32, ptr, ptr, ptr, ...) @IDAProcessError(ptr noundef %50, i32 noundef -1, ptr noundef @.str, ptr noundef @.str.16, ptr noundef @.str.17)
  store i32 -1, ptr %7, align 4
  store i32 1, ptr %19, align 4
  br label %71

51:                                               ; preds = %34
  br label %52

52:                                               ; preds = %51, %6
  %53 = load ptr, ptr %17, align 8, !tbaa !74
  %54 = getelementptr inbounds nuw %struct.IDABBDPrecDataRecB, ptr %53, i32 0, i32 0
  %55 = load ptr, ptr %54, align 8, !tbaa !76
  %56 = load i64, ptr %8, align 8, !tbaa !7
  %57 = load double, ptr %9, align 8, !tbaa !9
  %58 = load ptr, ptr %15, align 8, !tbaa !60
  %59 = getelementptr inbounds nuw %struct.IDAadjMemRec, ptr %58, i32 0, i32 28
  %60 = load ptr, ptr %59, align 8, !tbaa !84
  %61 = load ptr, ptr %15, align 8, !tbaa !60
  %62 = getelementptr inbounds nuw %struct.IDAadjMemRec, ptr %61, i32 0, i32 29
  %63 = load ptr, ptr %62, align 8, !tbaa !85
  %64 = load ptr, ptr %10, align 8, !tbaa !44
  %65 = load ptr, ptr %11, align 8, !tbaa !44
  %66 = load ptr, ptr %12, align 8, !tbaa !44
  %67 = load ptr, ptr %16, align 8, !tbaa !67
  %68 = getelementptr inbounds nuw %struct.IDABMemRec, ptr %67, i32 0, i32 9
  %69 = load ptr, ptr %68, align 8, !tbaa !86
  %70 = call i32 %55(i64 noundef %56, double noundef %57, ptr noundef %60, ptr noundef %63, ptr noundef %64, ptr noundef %65, ptr noundef %66, ptr noundef %69)
  store i32 %70, ptr %7, align 4
  store i32 1, ptr %19, align 4
  br label %71

71:                                               ; preds = %52, %49
  call void @llvm.lifetime.end.p0(i64 4, ptr %18) #6
  call void @llvm.lifetime.end.p0(i64 8, ptr %17) #6
  call void @llvm.lifetime.end.p0(i64 8, ptr %16) #6
  call void @llvm.lifetime.end.p0(i64 8, ptr %15) #6
  call void @llvm.lifetime.end.p0(i64 8, ptr %14) #6
  %72 = load i32, ptr %7, align 4
  ret i32 %72
}