; Function Attrs: nounwind uwtable
define internal i32 @IDAAglocal(i64 noundef %0, double noundef %1, ptr noundef %2, ptr noundef %3, ptr noundef %4, ptr noundef %5) #0 {
  %7 = getelementptr inbounds nuw i8, ptr %5, i64 1816
  %8 = load ptr, ptr %7, align 8, !tbaa !62
  %9 = getelementptr inbounds nuw i8, ptr %8, i64 48
  %10 = load ptr, ptr %9, align 8, !tbaa !79
  %11 = getelementptr inbounds nuw i8, ptr %10, i64 88
  %12 = load ptr, ptr %11, align 8, !tbaa !77
  %13 = getelementptr inbounds nuw i8, ptr %8, i64 168
  %14 = load i32, ptr %13, align 8, !tbaa !80
  %15 = icmp eq i32 %14, 0
  br i1 %15, label %16, label %25

16:                                               ; preds = %6
  %17 = getelementptr inbounds nuw i8, ptr %8, i64 128
  %18 = load ptr, ptr %17, align 8, !tbaa !81
  %19 = getelementptr inbounds nuw i8, ptr %8, i64 320
  %20 = load ptr, ptr %19, align 8, !tbaa !82
  %21 = getelementptr inbounds nuw i8, ptr %8, i64 328
  %22 = load ptr, ptr %21, align 8, !tbaa !83
  %23 = tail call i32 %18(ptr noundef nonnull %5, double noundef %1, ptr noundef %20, ptr noundef %22, ptr noundef null, ptr noundef null) #7
  %.not = icmp eq i32 %23, 0
  br i1 %.not, label %25, label %24

24:                                               ; preds = %16
  tail call void (ptr, i32, ptr, ptr, ptr, ...) @IDAProcessError(ptr noundef nonnull %5, i32 noundef -1, ptr noundef nonnull @.str, ptr noundef nonnull @.str.16, ptr noundef nonnull @.str.17) #7
  br label %34

25:                                               ; preds = %16, %6
  %26 = load ptr, ptr %12, align 8, !tbaa !74
  %27 = getelementptr inbounds nuw i8, ptr %8, i64 320
  %28 = load ptr, ptr %27, align 8, !tbaa !82
  %29 = getelementptr inbounds nuw i8, ptr %8, i64 328
  %30 = load ptr, ptr %29, align 8, !tbaa !83
  %31 = getelementptr inbounds nuw i8, ptr %10, i64 64
  %32 = load ptr, ptr %31, align 8, !tbaa !84
  %33 = tail call i32 %26(i64 noundef %0, double noundef %1, ptr noundef %28, ptr noundef %30, ptr noundef %2, ptr noundef %3, ptr noundef %4, ptr noundef %32) #7
  br label %34

34:                                               ; preds = %25, %24
  %.0 = phi i32 [ -1, %24 ], [ %33, %25 ]
  ret i32 %.0
}